; Function Attrs: mustprogress nounwind uwtable
define dso_local void @_ZN5clang8QualType5printEPKNS_4TypeENS_10QualifiersERN4llvm11raw_ostreamERKNS_14PrintingPolicyERKNS5_5TwineEj(ptr noundef %0, i64 %1, ptr noundef nonnull align 8 dereferenceable(48) %2, ptr nocapture noundef nonnull readonly align 8 dereferenceable(16) %3, ptr noundef nonnull align 8 dereferenceable(34) %4, i32 noundef %5) local_unnamed_addr #0 align 2 {
  %7 = alloca %"class.llvm::SmallString.427", align 8
  %8 = alloca %"class.(anonymous namespace)::TypePrinter", align 8
  %9 = getelementptr inbounds i8, ptr %7, i64 24
  call void @_ZN4llvm15SmallVectorBaseImEC2EPvm(ptr noundef nonnull align 8 dereferenceable(24) %7, ptr noundef nonnull %9, i64 noundef 128) #16
  %10 = call { ptr, i64 } @_ZNK4llvm5Twine11toStringRefERNS_15SmallVectorImplIcEE(ptr noundef nonnull align 8 dereferenceable(34) %4, ptr noundef nonnull align 8 dereferenceable(24) %7)
  %11 = extractvalue { ptr, i64 } %10, 0
  %12 = extractvalue { ptr, i64 } %10, 1
  call void @llvm.memcpy.p0.p0.i64(ptr noundef nonnull align 8 dereferenceable(16) %8, ptr noundef nonnull readonly align 8 dereferenceable(16) %3, i64 16, i1 false)
  %13 = getelementptr inbounds nuw i8, ptr %8, i64 16
  store i32 %5, ptr %13, align 8
  %14 = getelementptr inbounds nuw i8, ptr %8, i64 20
  store i8 0, ptr %14, align 4
  %15 = getelementptr inbounds nuw i8, ptr %8, i64 21
  store i8 0, ptr %15, align 1
  call fastcc void @_ZN12_GLOBAL__N_111TypePrinter5printEPKN5clang4TypeENS1_10QualifiersERN4llvm11raw_ostreamENS6_9StringRefE(ptr noundef nonnull align 8 dereferenceable(22) %8, ptr noundef %0, i64 %1, ptr noundef nonnull align 8 dereferenceable(48) %2, ptr %11, i64 %12)
  %16 = call noundef i64 @_ZNK4llvm15SmallVectorBaseImE4sizeEv(ptr noundef nonnull align 8 dereferenceable(24) %7) #16
  %17 = load ptr, ptr %7, align 8
  %18 = icmp eq ptr %17, %9
  br i1 %18, label %_ZN4llvm11SmallStringILj128EED2Ev.exit, label %19

19:                                               ; preds = %6
  call void @free(ptr noundef %17) #16
  br label %_ZN4llvm11SmallStringILj128EED2Ev.exit

_ZN4llvm11SmallStringILj128EED2Ev.exit:           ; preds = %6, %19
  ret void
}